target datalayout = "e-m:e-p270:32:32-p271:32:32-p272:64:64-i64:64-i128:128-f80:128-n8:16:32:64-S128"
target triple = "x86_64-pc-linux-gnu"

%struct.pm_lex_mode = type { i32, %union.anon, ptr }
%union.anon = type { %struct.anon.3 }
%struct.anon.3 = type { %struct.pm_heredoc_lex_mode_t, ptr, ptr, i8 }
%struct.pm_heredoc_lex_mode_t = type { ptr, i64, i32, i32 }
%struct.pm_parser = type { i32, i32, i32, i32, i32, i32, i32, %struct.anon, ptr, ptr, %struct.pm_token_t, %struct.pm_token_t, ptr, ptr, %struct.pm_list_t, %struct.pm_list_t, %struct.pm_location_t, %struct.pm_list_t, %struct.pm_list_t, ptr, ptr, ptr, ptr, ptr, ptr, ptr, %struct.pm_string_t, %struct.pm_constant_pool_t, %struct.pm_newline_list_t, i16, %struct.pm_string_t, i32, ptr, ptr, i32, i8, i8, i8, i8, i8, i8, i8, i8, i8, i8, i8, i8, i8 }
%struct.anon = type { ptr, [4 x %struct.pm_lex_mode], i64 }
%struct.pm_token_t = type { i32, ptr, ptr }
%struct.pm_location_t = type { ptr, ptr }
%struct.pm_list_t = type { i64, ptr, ptr }
%struct.pm_constant_pool_t = type { ptr, ptr, i32, i32 }
%struct.pm_newline_list_t = type { ptr, i64, i64, ptr }
%struct.pm_string_t = type { ptr, i64, i32 }
%struct.pm_node_list = type { i64, i64, ptr }
%struct.pm_statements_node = type { %struct.pm_node, %struct.pm_node_list }
%struct.pm_node = type { i16, i16, i32, %struct.pm_location_t }

; Function Attrs: inlinehint nounwind sspstrong uwtable
define internal void @pm_parser_warn(ptr noundef %0, ptr noundef %1, ptr noundef %2, i32 noundef %3) #7 {
  %5 = alloca ptr, align 8
  %6 = alloca ptr, align 8
  %7 = alloca ptr, align 8
  %8 = alloca i32, align 4
  store ptr %0, ptr %5, align 8, !tbaa !7
  store ptr %1, ptr %6, align 8, !tbaa !12
  store ptr %2, ptr %7, align 8, !tbaa !12
  store i32 %3, ptr %8, align 4, !tbaa !52
  %9 = load ptr, ptr %5, align 8, !tbaa !7
  %10 = getelementptr inbounds nuw %struct.pm_parser, ptr %9, i32 0, i32 17
  %11 = load ptr, ptr %6, align 8, !tbaa !12
  %12 = load ptr, ptr %7, align 8, !tbaa !12
  %13 = load i32, ptr %8, align 4, !tbaa !52
  %14 = call zeroext i1 @pm_diagnostic_list_append(ptr noundef %10, ptr noundef %11, ptr noundef %12, i32 noundef %13)
  ret void
}

; Function Attrs: nounwind sspstrong uwtable
define internal i64 @pm_statements_node_body_length(ptr noundef %0) #0 {
  %2 = alloca ptr, align 8
  store ptr %0, ptr %2, align 8, !tbaa !122
  %3 = load ptr, ptr %2, align 8, !tbaa !122
  %4 = icmp ne ptr %3, null
  br i1 %4, label %5, label %11

5:                                                ; preds = %1
  %6 = load ptr, ptr %2, align 8, !tbaa !122
  %7 = getelementptr inbounds nuw %struct.pm_statements_node, ptr %6, i32 0, i32 1
  %8 = getelementptr inbounds nuw %struct.pm_node_list, ptr %7, i32 0, i32 0
  %9 = load i64, ptr %8, align 8, !tbaa !127
  %10 = icmp ne i64 %9, 0
  br label %11

11:                                               ; preds = %5, %1
  %12 = phi i1 [ false, %1 ], [ %10, %5 ]
  %13 = zext i1 %12 to i32
  %14 = sext i32 %13 to i64
  ret i64 %14
}

; Function Attrs: inlinehint nounwind sspstrong uwtable
define internal void @pm_node_flag_set(ptr noundef %0, i16 noundef zeroext %1) #7 {
  %3 = alloca ptr, align 8
  %4 = alloca i16, align 2
  store ptr %0, ptr %3, align 8, !tbaa !128
  store i16 %1, ptr %4, align 2, !tbaa !59
  %5 = load i16, ptr %4, align 2, !tbaa !59
  %6 = zext i16 %5 to i32
  %7 = load ptr, ptr %3, align 8, !tbaa !128
  %8 = getelementptr inbounds nuw %struct.pm_node, ptr %7, i32 0, i32 1
  %9 = load i16, ptr %8, align 2, !tbaa !222
  %10 = zext i16 %9 to i32
  %11 = or i32 %10, %6
  %12 = trunc i32 %11 to i16
  store i16 %12, ptr %8, align 2, !tbaa !222
  ret void
}

; Function Attrs: inlinehint nounwind sspstrong uwtable
define internal void @pm_parser_warn_node(ptr noundef %0, ptr noundef %1, i32 noundef %2) #7 {
  %4 = alloca ptr, align 8
  %5 = alloca ptr, align 8
  %6 = alloca i32, align 4
  store ptr %0, ptr %4, align 8, !tbaa !7
  store ptr %1, ptr %5, align 8, !tbaa !128
  store i32 %2, ptr %6, align 4, !tbaa !52
  %7 = load ptr, ptr %4, align 8, !tbaa !7
  %8 = load ptr, ptr %5, align 8, !tbaa !128
  %9 = getelementptr inbounds nuw %struct.pm_node, ptr %8, i32 0, i32 3
  %10 = getelementptr inbounds nuw %struct.pm_location_t, ptr %9, i32 0, i32 0
  %11 = load ptr, ptr %10, align 8, !tbaa !223
  %12 = load ptr, ptr %5, align 8, !tbaa !128
  %13 = getelementptr inbounds nuw %struct.pm_node, ptr %12, i32 0, i32 3
  %14 = getelementptr inbounds nuw %struct.pm_location_t, ptr %13, i32 0, i32 1
  %15 = load ptr, ptr %14, align 8, !tbaa !224
  %16 = load i32, ptr %6, align 4, !tbaa !52
  call void @pm_parser_warn(ptr noundef %7, ptr noundef %11, ptr noundef %15, i32 noundef %16)
  ret void
}

; Function Attrs: inlinehint nounwind sspstrong uwtable
define internal void @pm_statements_node_body_update(ptr noundef %0, ptr noundef %1) #7 {
  %3 = alloca ptr, align 8
  %4 = alloca ptr, align 8
  store ptr %0, ptr %3, align 8, !tbaa !122
  store ptr %1, ptr %4, align 8, !tbaa !128
  %5 = load ptr, ptr %3, align 8, !tbaa !122
  %6 = call i64 @pm_statements_node_body_length(ptr noundef %5)
  %7 = icmp eq i64 %6, 0
  br i1 %7, label %19, label %8

8:                                                ; preds = %2
  %9 = load ptr, ptr %4, align 8, !tbaa !128
  %10 = getelementptr inbounds nuw %struct.pm_node, ptr %9, i32 0, i32 3
  %11 = getelementptr inbounds nuw %struct.pm_location_t, ptr %10, i32 0, i32 0
  %12 = load ptr, ptr %11, align 8, !tbaa !223
  %13 = load ptr, ptr %3, align 8, !tbaa !122
  %14 = getelementptr inbounds nuw %struct.pm_statements_node, ptr %13, i32 0, i32 0
  %15 = getelementptr inbounds nuw %struct.pm_node, ptr %14, i32 0, i32 3
  %16 = getelementptr inbounds nuw %struct.pm_location_t, ptr %15, i32 0, i32 0
  %17 = load ptr, ptr %16, align 8, !tbaa !244
  %18 = icmp ult ptr %12, %17
  br i1 %18, label %19, label %28

19:                                               ; preds = %8, %2
  %20 = load ptr, ptr %4, align 8, !tbaa !128
  %21 = getelementptr inbounds nuw %struct.pm_node, ptr %20, i32 0, i32 3
  %22 = getelementptr inbounds nuw %struct.pm_location_t, ptr %21, i32 0, i32 0
  %23 = load ptr, ptr %22, align 8, !tbaa !223
  %24 = load ptr, ptr %3, align 8, !tbaa !122
  %25 = getelementptr inbounds nuw %struct.pm_statements_node, ptr %24, i32 0, i32 0
  %26 = getelementptr inbounds nuw %struct.pm_node, ptr %25, i32 0, i32 3
  %27 = getelementptr inbounds nuw %struct.pm_location_t, ptr %26, i32 0, i32 0
  store ptr %23, ptr %27, align 8, !tbaa !244
  br label %28

28:                                               ; preds = %19, %8
  %29 = load ptr, ptr %4, align 8, !tbaa !128
  %30 = getelementptr inbounds nuw %struct.pm_node, ptr %29, i32 0, i32 3
  %31 = getelementptr inbounds nuw %struct.pm_location_t, ptr %30, i32 0, i32 1
  %32 = load ptr, ptr %31, align 8, !tbaa !224
  %33 = load ptr, ptr %3, align 8, !tbaa !122
  %34 = getelementptr inbounds nuw %struct.pm_statements_node, ptr %33, i32 0, i32 0
  %35 = getelementptr inbounds nuw %struct.pm_node, ptr %34, i32 0, i32 3
  %36 = getelementptr inbounds nuw %struct.pm_location_t, ptr %35, i32 0, i32 1
  %37 = load ptr, ptr %36, align 8, !tbaa !245
  %38 = icmp ugt ptr %32, %37
  br i1 %38, label %39, label %48

39:                                               ; preds = %28
  %40 = load ptr, ptr %4, align 8, !tbaa !128
  %41 = getelementptr inbounds nuw %struct.pm_node, ptr %40, i32 0, i32 3
  %42 = getelementptr inbounds nuw %struct.pm_location_t, ptr %41, i32 0, i32 1
  %43 = load ptr, ptr %42, align 8, !tbaa !224
  %44 = load ptr, ptr %3, align 8, !tbaa !122
  %45 = getelementptr inbounds nuw %struct.pm_statements_node, ptr %44, i32 0, i32 0
  %46 = getelementptr inbounds nuw %struct.pm_node, ptr %45, i32 0, i32 3
  %47 = getelementptr inbounds nuw %struct.pm_location_t, ptr %46, i32 0, i32 1
  store ptr %43, ptr %47, align 8, !tbaa !245
  br label %48

48:                                               ; preds = %39, %28
  ret void
}

; Function Attrs: nounwind sspstrong uwtable
define internal void @pm_statements_node_body_append(ptr noundef %0, ptr noundef %1, ptr noundef %2, i1 noundef zeroext %3) #0 {
  %5 = alloca ptr, align 8
  %6 = alloca ptr, align 8
  %7 = alloca ptr, align 8
  %8 = alloca i8, align 1
  %9 = alloca ptr, align 8
  store ptr %0, ptr %5, align 8, !tbaa !7
  store ptr %1, ptr %6, align 8, !tbaa !122
  store ptr %2, ptr %7, align 8, !tbaa !128
  %10 = zext i1 %3 to i8
  store i8 %10, ptr %8, align 1, !tbaa !61
  %11 = load ptr, ptr %6, align 8, !tbaa !122
  %12 = load ptr, ptr %7, align 8, !tbaa !128
  call void @pm_statements_node_body_update(ptr noundef %11, ptr noundef %12)
  %13 = load ptr, ptr %6, align 8, !tbaa !122
  %14 = getelementptr inbounds nuw %struct.pm_statements_node, ptr %13, i32 0, i32 1
  %15 = getelementptr inbounds nuw %struct.pm_node_list, ptr %14, i32 0, i32 0
  %16 = load i64, ptr %15, align 8, !tbaa !127
  %17 = icmp ugt i64 %16, 0
  br i1 %17, label %18, label %39

18:                                               ; preds = %4
  call void @llvm.lifetime.start.p0(i64 8, ptr %9) #15
  %19 = load ptr, ptr %6, align 8, !tbaa !122
  %20 = getelementptr inbounds nuw %struct.pm_statements_node, ptr %19, i32 0, i32 1
  %21 = getelementptr inbounds nuw %struct.pm_node_list, ptr %20, i32 0, i32 2
  %22 = load ptr, ptr %21, align 8, !tbaa !124
  %23 = load ptr, ptr %6, align 8, !tbaa !122
  %24 = getelementptr inbounds nuw %struct.pm_statements_node, ptr %23, i32 0, i32 1
  %25 = getelementptr inbounds nuw %struct.pm_node_list, ptr %24, i32 0, i32 0
  %26 = load i64, ptr %25, align 8, !tbaa !127
  %27 = sub i64 %26, 1
  %28 = getelementptr ptr, ptr %22, i64 %27
  %29 = load ptr, ptr %28, align 8, !tbaa !128
  store ptr %29, ptr %9, align 8, !tbaa !128
  %30 = load ptr, ptr %9, align 8, !tbaa !128
  %31 = getelementptr inbounds nuw %struct.pm_node, ptr %30, i32 0, i32 0
  %32 = load i16, ptr %31, align 8, !tbaa !206
  %33 = zext i16 %32 to i32
  switch i32 %33, label %37 [
    i32 17, label %34
    i32 107, label %34
    i32 124, label %34
    i32 131, label %34
    i32 132, label %34
  ]

34:                                               ; preds = %18, %18, %18, %18, %18
  %35 = load ptr, ptr %5, align 8, !tbaa !7
  %36 = load ptr, ptr %7, align 8, !tbaa !128
  call void @pm_parser_warn_node(ptr noundef %35, ptr noundef %36, i32 noundef 316)
  br label %38

37:                                               ; preds = %18
  br label %38

38:                                               ; preds = %37, %34
  call void @llvm.lifetime.end.p0(i64 8, ptr %9) #15
  br label %39

39:                                               ; preds = %38, %4
  %40 = load ptr, ptr %6, align 8, !tbaa !122
  %41 = getelementptr inbounds nuw %struct.pm_statements_node, ptr %40, i32 0, i32 1
  %42 = load ptr, ptr %7, align 8, !tbaa !128
  call void @pm_node_list_append(ptr noundef %41, ptr noundef %42)
  %43 = load i8, ptr %8, align 1, !tbaa !61, !range !67, !noundef !68
  %44 = trunc i8 %43 to i1
  br i1 %44, label %45, label %47

45:                                               ; preds = %39
  %46 = load ptr, ptr %7, align 8, !tbaa !128
  call void @pm_node_flag_set(ptr noundef %46, i16 noundef zeroext 1)
  br label %47

47:                                               ; preds = %45, %39
  ret void
}