; Function Attrs: nounwind sspstrong uwtable
define internal fastcc void @pm_statements_node_body_append(ptr noundef %0, ptr noundef nonnull %1, ptr noundef %2, i1 noundef zeroext %3) unnamed_addr #1 {
  %5 = getelementptr inbounds nuw i8, ptr %1, i64 24
  %6 = load i64, ptr %5, align 8, !tbaa !102
  %.not.i = icmp eq i64 %6, 0
  %.phi.trans.insert.i = getelementptr inbounds nuw i8, ptr %2, i64 8
  %.pre.i = load ptr, ptr %.phi.trans.insert.i, align 8, !tbaa !131
  br i1 %.not.i, label %._crit_edge.i, label %7

7:                                                ; preds = %4
  %8 = getelementptr inbounds nuw i8, ptr %1, i64 8
  %9 = load ptr, ptr %8, align 8, !tbaa !119
  %10 = icmp ult ptr %.pre.i, %9
  br i1 %10, label %._crit_edge.i, label %12

._crit_edge.i:                                    ; preds = %7, %4
  %11 = getelementptr inbounds nuw i8, ptr %1, i64 8
  store ptr %.pre.i, ptr %11, align 8, !tbaa !119
  br label %12

12:                                               ; preds = %._crit_edge.i, %7
  %13 = getelementptr inbounds nuw i8, ptr %2, i64 16
  %14 = load ptr, ptr %13, align 8, !tbaa !132
  %15 = getelementptr inbounds nuw i8, ptr %1, i64 16
  %16 = load ptr, ptr %15, align 8, !tbaa !120
  %17 = icmp ugt ptr %14, %16
  br i1 %17, label %18, label %pm_statements_node_body_update.exit

18:                                               ; preds = %12
  store ptr %14, ptr %15, align 8, !tbaa !120
  br label %pm_statements_node_body_update.exit

pm_statements_node_body_update.exit:              ; preds = %12, %18
  br i1 %.not.i, label %29, label %19

19:                                               ; preds = %pm_statements_node_body_update.exit
  %20 = getelementptr inbounds nuw i8, ptr %1, i64 40
  %21 = load ptr, ptr %20, align 8, !tbaa !99
  %22 = getelementptr ptr, ptr %21, i64 %6
  %23 = getelementptr i8, ptr %22, i64 -8
  %24 = load ptr, ptr %23, align 8, !tbaa !103
  %25 = load i16, ptr %24, align 8, !tbaa !113
  switch i16 %25, label %29 [
    i16 17, label %26
    i16 107, label %26
    i16 124, label %26
    i16 131, label %26
    i16 132, label %26
  ]

26:                                               ; preds = %19, %19, %19, %19, %19
  %.val = load ptr, ptr %.phi.trans.insert.i, align 8, !tbaa !131
  %.val11 = load ptr, ptr %13, align 8, !tbaa !132
  %27 = getelementptr inbounds nuw i8, ptr %0, i64 448
  %28 = tail call zeroext i1 @pm_diagnostic_list_append(ptr noundef nonnull %27, ptr noundef %.val, ptr noundef %.val11, i32 noundef range(i32 290, 317) 316) #31
  br label %29

29:                                               ; preds = %26, %19, %pm_statements_node_body_update.exit
  tail call void @pm_node_list_append(ptr noundef nonnull %5, ptr noundef nonnull %2) #31
  br i1 %3, label %30, label %34

30:                                               ; preds = %29
  %31 = getelementptr inbounds nuw i8, ptr %2, i64 2
  %32 = load i16, ptr %31, align 2, !tbaa !114
  %33 = or i16 %32, 1
  store i16 %33, ptr %31, align 2, !tbaa !114
  br label %34

34:                                               ; preds = %30, %29
  ret void
}